target datalayout = "e-m:e-p270:32:32-p271:32:32-p272:64:64-i64:64-i128:128-f80:128-n8:16:32:64-S128"
target triple = "x86_64-pc-linux-gnu"

; Function Attrs: mustprogress uwtable
define linkonce_odr void @_ZN6google8protobuf5Arena3OwnINS0_11MessageLiteEEEvPT_(ptr noundef nonnull align 8 dereferenceable(40) %0, ptr noundef %1) #4 comdat align 2 {
  %3 = alloca ptr, align 8
  %4 = alloca ptr, align 8
  %5 = alloca ptr, align 8
  %6 = alloca ptr, align 8
  store ptr %0, ptr %5, align 8
  store ptr %1, ptr %6, align 8
  %7 = load ptr, ptr %5, align 8
  %8 = load ptr, ptr %6, align 8
  store ptr %7, ptr %3, align 8
  store ptr %8, ptr %4, align 8
  %9 = load ptr, ptr %3, align 8
  %10 = load ptr, ptr %4, align 8
  %11 = icmp ne ptr %10, null
  br i1 %11, label %12, label %14

12:                                               ; preds = %2
  %13 = load ptr, ptr %4, align 8
  call void @_ZN6google8protobuf8internal9ArenaImpl10AddCleanupEPvPFvS3_E(ptr noundef nonnull align 8 dereferenceable(40) %9, ptr noundef %13, ptr noundef @_ZN6google8protobuf8internal19arena_delete_objectINS0_11MessageLiteEEEvPv)
  br label %14

14:                                               ; preds = %12, %2
  ret void
}

; Function Attrs: mustprogress uwtable
define noundef ptr @_ZNK6google8protobuf11MessageLite3NewEPNS0_5ArenaE(ptr noundef nonnull align 8 dereferenceable(16) %0, ptr noundef %1) unnamed_addr #4 align 2 {
  %3 = alloca ptr, align 8
  %4 = alloca ptr, align 8
  %5 = alloca ptr, align 8
  store ptr %0, ptr %3, align 8
  store ptr %1, ptr %4, align 8
  %6 = load ptr, ptr %3, align 8
  %7 = load ptr, ptr %6, align 8
  %8 = getelementptr inbounds ptr, ptr %7, i64 3
  %9 = load ptr, ptr %8, align 8
  %10 = call noundef ptr %9(ptr noundef nonnull align 8 dereferenceable(16) %6)
  store ptr %10, ptr %5, align 8
  %11 = load ptr, ptr %4, align 8
  %12 = icmp ne ptr %11, null
  br i1 %12, label %13, label %16

13:                                               ; preds = %2
  %14 = load ptr, ptr %4, align 8
  %15 = load ptr, ptr %5, align 8
  call void @_ZN6google8protobuf5Arena3OwnINS0_11MessageLiteEEEvPT_(ptr noundef nonnull align 8 dereferenceable(40) %14, ptr noundef %15)
  br label %16

16:                                               ; preds = %13, %2
  %17 = load ptr, ptr %5, align 8
  ret ptr %17
}