; Function Attrs: mustprogress uwtable
define noundef ptr @_ZNK6google8protobuf11MessageLite3NewEPNS0_5ArenaE(ptr noundef nonnull align 8 dereferenceable(16) %0, ptr noundef %1) unnamed_addr #3 align 2 {
  %3 = load ptr, ptr %0, align 8
  %4 = getelementptr inbounds i8, ptr %3, i64 24
  %5 = load ptr, ptr %4, align 8
  %6 = tail call noundef ptr %5(ptr noundef nonnull align 8 dereferenceable(16) %0)
  %.not = icmp eq ptr %1, null
  %.not.i = icmp eq ptr %6, null
  %or.cond = or i1 %.not, %.not.i
  br i1 %or.cond, label %_ZN6google8protobuf5Arena3OwnINS0_11MessageLiteEEEvPT_.exit, label %7

7:                                                ; preds = %2
  tail call void @_ZN6google8protobuf8internal9ArenaImpl10AddCleanupEPvPFvS3_E(ptr noundef nonnull align 8 dereferenceable(40) %1, ptr noundef nonnull %6, ptr noundef nonnull @_ZN6google8protobuf8internal19arena_delete_objectINS0_11MessageLiteEEEvPv)
  br label %_ZN6google8protobuf5Arena3OwnINS0_11MessageLiteEEEvPT_.exit

_ZN6google8protobuf5Arena3OwnINS0_11MessageLiteEEEvPT_.exit: ; preds = %7, %2
  ret ptr %6
}